; ModuleID = 'source-C-CXX/42/1506.c'
source_filename = "source-C-CXX/42/1506.c"
target datalayout = "e-m:e-p270:32:32-p271:32:32-p272:64:64-i64:64-f80:128-n8:16:32:64-S128"
target triple = "x86_64-pc-linux-gnu"

%struct._IO_FILE = type { i32, i8*, i8*, i8*, i8*, i8*, i8*, i8*, i8*, i8*, i8*, i8*, %struct._IO_marker*, %struct._IO_FILE*, i32, i32, i64, i16, i8, [1 x i8], i8*, i64, %struct._IO_codecvt*, %struct._IO_wide_data*, %struct._IO_FILE*, i8*, i64, i32, [20 x i8] }
%struct._IO_marker = type opaque
%struct._IO_codecvt = type opaque
%struct._IO_wide_data = type opaque

@.str = private unnamed_addr constant [3 x i8] c"%d\00", align 1
@.str.1 = private unnamed_addr constant [7 x i8] c"%d %d\0A\00", align 1
@stdin = external local_unnamed_addr global %struct._IO_FILE*, align 8

; Function Attrs: nofree norecurse nosync nounwind readnone sspstrong uwtable
define dso_local i32 @zhishu(i32 %0) local_unnamed_addr #0 {
  %2 = icmp sgt i32 %0, 2
  br i1 %2, label %3, label %10

3:                                                ; preds = %1, %7
  %4 = phi i32 [ %8, %7 ], [ 2, %1 ]
  %5 = srem i32 %0, %4
  %6 = icmp eq i32 %5, 0
  br i1 %6, label %10, label %7

7:                                                ; preds = %3
  %8 = add nuw nsw i32 %4, 1
  %9 = icmp eq i32 %8, %0
  br i1 %9, label %10, label %3, !llvm.loop !5

10:                                               ; preds = %7, %3, %1
  %11 = phi i32 [ 2, %1 ], [ %4, %3 ], [ %0, %7 ]
  %12 = icmp eq i32 %11, %0
  %13 = zext i1 %12 to i32
  ret i32 %13
}

; Function Attrs: argmemonly mustprogress nofree nosync nounwind willreturn
declare void @llvm.lifetime.start.p0i8(i64 immarg, i8* nocapture) #1

; Function Attrs: argmemonly mustprogress nofree nosync nounwind willreturn
declare void @llvm.lifetime.end.p0i8(i64 immarg, i8* nocapture) #1

; Function Attrs: nofree nounwind sspstrong uwtable
define dso_local i32 @main() local_unnamed_addr #2 {
  %1 = alloca i32, align 4
  %2 = bitcast i32* %1 to i8*
  call void @llvm.lifetime.start.p0i8(i64 4, i8* nonnull %2) #4
  %3 = call i32 (i8*, ...) @__isoc99_scanf(i8* getelementptr inbounds ([3 x i8], [3 x i8]* @.str, i64 0, i64 0), i32* nonnull %1)
  %4 = load i32, i32* %1, align 4, !tbaa !7
  %5 = icmp slt i32 %4, 6
  br i1 %5, label %6, label %15

6:                                                ; preds = %44, %0
  %7 = load %struct._IO_FILE*, %struct._IO_FILE** @stdin, align 8, !tbaa !11
  %8 = call i32 @getc(%struct._IO_FILE* %7) #4
  %9 = load %struct._IO_FILE*, %struct._IO_FILE** @stdin, align 8, !tbaa !11
  %10 = call i32 @getc(%struct._IO_FILE* %9) #4
  %11 = load %struct._IO_FILE*, %struct._IO_FILE** @stdin, align 8, !tbaa !11
  %12 = call i32 @getc(%struct._IO_FILE* %11) #4
  %13 = load %struct._IO_FILE*, %struct._IO_FILE** @stdin, align 8, !tbaa !11
  %14 = call i32 @getc(%struct._IO_FILE* %13) #4
  call void @llvm.lifetime.end.p0i8(i64 4, i8* nonnull %2) #4
  ret i32 0

15:                                               ; preds = %0, %44
  %16 = phi i32 [ %45, %44 ], [ %4, %0 ]
  %17 = phi i32 [ %46, %44 ], [ 3, %0 ]
  br label %18

18:                                               ; preds = %15, %22
  %19 = phi i32 [ %23, %22 ], [ 2, %15 ]
  %20 = urem i32 %17, %19
  %21 = icmp eq i32 %20, 0
  br i1 %21, label %25, label %22

22:                                               ; preds = %18
  %23 = add nuw nsw i32 %19, 1
  %24 = icmp eq i32 %23, %17
  br i1 %24, label %25, label %18, !llvm.loop !5

25:                                               ; preds = %18, %22
  %26 = phi i32 [ %19, %18 ], [ %17, %22 ]
  %27 = icmp eq i32 %26, %17
  %28 = sub nsw i32 %16, %17
  %29 = icmp sgt i32 %28, 2
  br i1 %29, label %30, label %37

30:                                               ; preds = %25, %34
  %31 = phi i32 [ %35, %34 ], [ 2, %25 ]
  %32 = srem i32 %28, %31
  %33 = icmp eq i32 %32, 0
  br i1 %33, label %37, label %34

34:                                               ; preds = %30
  %35 = add nuw nsw i32 %31, 1
  %36 = icmp eq i32 %35, %28
  br i1 %36, label %37, label %30, !llvm.loop !5

37:                                               ; preds = %30, %34, %25
  %38 = phi i32 [ 2, %25 ], [ %28, %34 ], [ %31, %30 ]
  %39 = icmp eq i32 %38, %28
  %40 = select i1 %27, i1 %39, i1 false
  br i1 %40, label %41, label %44

41:                                               ; preds = %37
  %42 = call i32 (i8*, ...) @printf(i8* nonnull dereferenceable(1) getelementptr inbounds ([7 x i8], [7 x i8]* @.str.1, i64 0, i64 0), i32 %17, i32 %28)
  %43 = load i32, i32* %1, align 4, !tbaa !7
  br label %44

44:                                               ; preds = %37, %41
  %45 = phi i32 [ %16, %37 ], [ %43, %41 ]
  %46 = add nuw nsw i32 %17, 1
  %47 = sdiv i32 %45, 2
  %48 = icmp slt i32 %17, %47
  br i1 %48, label %15, label %6, !llvm.loop !13
}

; Function Attrs: nofree nounwind
declare noundef i32 @__isoc99_scanf(i8* nocapture noundef readonly, ...) local_unnamed_addr #3

; Function Attrs: nofree nounwind
declare noundef i32 @printf(i8* nocapture noundef readonly, ...) local_unnamed_addr #3

; Function Attrs: nofree nounwind
declare noundef i32 @getc(%struct._IO_FILE* nocapture noundef) local_unnamed_addr #3


!llvm.module.flags = !{!0, !1, !2, !3}
!llvm.ident = !{!4}

!0 = !{i32 1, !"wchar_size", i32 4}
!1 = !{i32 7, !"PIC Level", i32 2}
!2 = !{i32 7, !"PIE Level", i32 2}
!3 = !{i32 7, !"uwtable", i32 1}
!4 = !{!"clang version 13.0.0"}
!5 = distinct !{!5, !6}
!6 = !{!"llvm.loop.mustprogress"}
!7 = !{!8, !8, i64 0}
!8 = !{!"int", !9, i64 0}
!9 = !{!"omnipotent char", !10, i64 0}
!10 = !{!"Simple C/C++ TBAA"}
!11 = !{!12, !12, i64 0}
!12 = !{!"any pointer", !9, i64 0}
!13 = distinct !{!13, !6}
